; Function Attrs: mustprogress nounwind uwtable
define dso_local noundef ptr @_ZNK4llvm11PoisonValue16getStructElementEj(ptr nocapture noundef nonnull readonly align 8 dereferenceable(24) %0, i32 noundef %1) local_unnamed_addr #0 align 2 {
  %3 = getelementptr inbounds nuw i8, ptr %0, i64 8
  %4 = load ptr, ptr %3, align 8
  %5 = getelementptr inbounds nuw i8, ptr %4, i64 16
  %6 = load ptr, ptr %5, align 8
  %7 = zext i32 %1 to i64
  %8 = getelementptr inbounds ptr, ptr %6, i64 %7
  %9 = load ptr, ptr %8, align 8
  %10 = tail call noundef ptr @_ZN4llvm11PoisonValue3getEPNS_4TypeE(ptr noundef %9)
  ret ptr %10
}